(dp0
S'username'
p1
(lp2
S'admin'
p3
aS'vinay'
p4
asS'permissions'
p5
(lp6
(lp7
I1
aI2
aI3
aI4
aI5
aa(lp8
I1
aI2
aI3
aI4
aI5
aasS'password'
p9
(lp10
S'letmein'
p11
aS'letmein'
p12
asS'id'
p13
(lp14
S'0'
p15
aS'1'
p16
asS'name'
p17
(lp18
S'Mr Howard Wolawitz'
p19
aS'Mr Vinay C K'
p20
as.