(dp0
S'what'
p1
(lp2
sS'from'
p3
(lp4
sS'total_amount'
p5
(lp6
sS'ended'
p7
(lp8
sS'confirmed'
p9
(lp10
sS'comments'
p11
(lp12
sS'by'
p13
(lp14
sS'to'
p15
(lp16
sS'reason'
p17
(lp18
sS'booking_time'
p19
(lp20
sS'other'
p21
(lp22
sS'id'
p23
(lp24
sS'quantity'
p25
(lp26
s.