(dp0
S'username'
p1
(lp2
S'vinay'
p3
aS'vinay2'
p4
asS'mobile'
p5
(lp6
S'1234567890'
p7
aS'1234567890'
p8
asS'gender'
p9
(lp10
S'male'
p11
aS'male'
p12
asS'lname'
p13
(lp14
S'C K'
p15
aS'ck2'
p16
asS'secans'
p17
(lp18
S'ruby'
p19
aS'vinay'
p20
asS'fname'
p21
(lp22
S'Vinay'
p23
aS'Adarsh'
p24
asS'secque'
p25
(lp26
S'What is your dogs name?'
p27
aS'What is you brothers name?'
p28
asS'password'
p29
(lp30
S'letmein'
p31
aS'letmein'
p32
asS'id'
p33
(lp34
S'0'
p35
aS'1'
p36
as.